target datalayout = "e-m:e-p270:32:32-p271:32:32-p272:64:64-i64:64-i128:128-f80:128-n8:16:32:64-S128"
target triple = "x86_64-pc-linux-gnu"

%struct.AVCodecContext = type { ptr, i32, i32, ptr, i32, i32, ptr, ptr, ptr, i64, i32, i32, ptr, i32, %struct.AVRational, %struct.AVRational, %struct.AVRational, i32, i32, i32, i32, i32, %struct.AVRational, i32, i32, i32, i32, i32, i32, i32, i32, i32, i32, i32, ptr, ptr, i32, float, float, float, float, float, float, float, float, float, i32, i32, i32, i32, i32, i32, i32, i32, i32, i32, i32, i32, ptr, ptr, ptr, i32, i32, i32, i32, i32, i32, i32, i32, i32, i32, %struct.AVChannelLayout, i32, i32, i32, i32, i32, i32, i32, i32, ptr, i32, i32, i32, float, float, i32, i32, i32, i32, i32, ptr, i64, i64, float, float, i32, i32, ptr, ptr, i32, i32, i32, i32, i32, ptr, ptr, ptr, ptr, i32, i32, [8 x i64], i32, i32, i32, i32, i32, i32, i32, ptr, ptr, i32, i32, i32, i32, i32, i32, i32, i32, i32, i32, ptr, ptr, i32, i32, ptr, ptr, ptr, ptr, i32, i32, i64, i32, i32, i64, ptr, i64, ptr, i32, ptr, i32 }
%struct.AVRational = type { i32, i32 }
%struct.AVChannelLayout = type { i32, i32, %union.anon.0, ptr }
%union.anon.0 = type { i64 }
%struct.AVFrame = type { [8 x ptr], [8 x i32], ptr, i32, i32, i32, i32, i32, %struct.AVRational, i64, i64, %struct.AVRational, i32, ptr, i32, i32, [8 x ptr], ptr, i32, ptr, i32, i32, i32, i32, i32, i32, i32, i64, ptr, i32, ptr, ptr, i64, i64, i64, i64, ptr, %struct.AVChannelLayout, i64 }
%struct.AVPacket = type { ptr, i64, i64, ptr, i32, i32, i32, ptr, i32, i64, i64, ptr, ptr, %struct.AVRational }

; Function Attrs: alwaysinline nounwind willreturn memory(none) uwtable
define internal i32 @av_bswap32(i32 noundef %0) #7 {
  %2 = alloca i32, align 4
  store i32 %0, ptr %2, align 4, !tbaa !30
  %3 = load i32, ptr %2, align 4, !tbaa !30
  %4 = shl i32 %3, 8
  %5 = and i32 %4, 65280
  %6 = load i32, ptr %2, align 4, !tbaa !30
  %7 = lshr i32 %6, 8
  %8 = and i32 %7, 255
  %9 = or i32 %5, %8
  %10 = shl i32 %9, 16
  %11 = load i32, ptr %2, align 4, !tbaa !30
  %12 = lshr i32 %11, 16
  %13 = shl i32 %12, 8
  %14 = and i32 %13, 65280
  %15 = load i32, ptr %2, align 4, !tbaa !30
  %16 = lshr i32 %15, 16
  %17 = lshr i32 %16, 8
  %18 = and i32 %17, 255
  %19 = or i32 %14, %18
  %20 = or i32 %10, %19
  ret i32 %20
}

; Function Attrs: alwaysinline nounwind uwtable
define internal void @bytestream_put_be32(ptr noundef %0, i32 noundef %1) #5 {
  %3 = alloca ptr, align 8
  %4 = alloca i32, align 4
  store ptr %0, ptr %3, align 8, !tbaa !48
  store i32 %1, ptr %4, align 4, !tbaa !30
  %5 = load i32, ptr %4, align 4, !tbaa !30
  %6 = call i32 @av_bswap32(i32 noundef %5) #9
  %7 = load ptr, ptr %3, align 8, !tbaa !48
  %8 = load ptr, ptr %7, align 8, !tbaa !39
  store i32 %6, ptr %8, align 1, !tbaa !50
  %9 = load ptr, ptr %3, align 8, !tbaa !48
  %10 = load ptr, ptr %9, align 8, !tbaa !39
  %11 = getelementptr inbounds i8, ptr %10, i64 4
  store ptr %11, ptr %9, align 8, !tbaa !39
  ret void
}

; Function Attrs: alwaysinline nounwind uwtable
define internal void @bytestream_put_le32(ptr noundef %0, i32 noundef %1) #5 {
  %3 = alloca ptr, align 8
  %4 = alloca i32, align 4
  store ptr %0, ptr %3, align 8, !tbaa !48
  store i32 %1, ptr %4, align 4, !tbaa !30
  %5 = load i32, ptr %4, align 4, !tbaa !30
  %6 = load ptr, ptr %3, align 8, !tbaa !48
  %7 = load ptr, ptr %6, align 8, !tbaa !39
  store i32 %5, ptr %7, align 1, !tbaa !50
  %8 = load ptr, ptr %3, align 8, !tbaa !48
  %9 = load ptr, ptr %8, align 8, !tbaa !39
  %10 = getelementptr inbounds i8, ptr %9, i64 4
  store ptr %10, ptr %8, align 8, !tbaa !39
  ret void
}

; Function Attrs: nounwind uwtable
define internal i32 @encode_frame(ptr noundef %0, ptr noundef %1, ptr noundef %2, ptr noundef %3) #1 {
  %5 = alloca i32, align 4
  %6 = alloca ptr, align 8
  %7 = alloca ptr, align 8
  %8 = alloca ptr, align 8
  %9 = alloca ptr, align 8
  %10 = alloca i32, align 4
  %11 = alloca i32, align 4
  %12 = alloca i32, align 4
  %13 = alloca i32, align 4
  %14 = alloca i32, align 4
  %15 = alloca ptr, align 8
  %16 = alloca ptr, align 8
  %17 = alloca ptr, align 8
  %18 = alloca ptr, align 8
  %19 = alloca i32, align 4
  %20 = alloca ptr, align 8
  %21 = alloca ptr, align 8
  %22 = alloca ptr, align 8
  %23 = alloca i32, align 4
  %24 = alloca i32, align 4
  %25 = alloca i32, align 4
  %26 = alloca i32, align 4
  store ptr %0, ptr %6, align 8, !tbaa !4
  store ptr %1, ptr %7, align 8, !tbaa !33
  store ptr %2, ptr %8, align 8, !tbaa !35
  store ptr %3, ptr %9, align 8, !tbaa !37
  call void @llvm.lifetime.start.p0(i64 4, ptr %10) #8
  call void @llvm.lifetime.start.p0(i64 4, ptr %11) #8
  call void @llvm.lifetime.start.p0(i64 4, ptr %12) #8
  call void @llvm.lifetime.start.p0(i64 4, ptr %13) #8
  %27 = load ptr, ptr %6, align 8, !tbaa !4
  %28 = getelementptr inbounds nuw %struct.AVCodecContext, ptr %27, i32 0, i32 18
  %29 = load i32, ptr %28, align 8, !tbaa !9
  %30 = load ptr, ptr %6, align 8, !tbaa !4
  %31 = getelementptr inbounds nuw %struct.AVCodecContext, ptr %30, i32 0, i32 4
  %32 = load i32, ptr %31, align 8, !tbaa !29
  %33 = icmp eq i32 %32, 144
  %34 = select i1 %33, i32 1, i32 64
  %35 = add nsw i32 %29, %34
  %36 = sub nsw i32 %35, 1
  %37 = load ptr, ptr %6, align 8, !tbaa !4
  %38 = getelementptr inbounds nuw %struct.AVCodecContext, ptr %37, i32 0, i32 4
  %39 = load i32, ptr %38, align 8, !tbaa !29
  %40 = icmp eq i32 %39, 144
  %41 = select i1 %40, i32 1, i32 64
  %42 = sub nsw i32 %41, 1
  %43 = xor i32 %42, -1
  %44 = and i32 %36, %43
  store i32 %44, ptr %13, align 4, !tbaa !30
  call void @llvm.lifetime.start.p0(i64 4, ptr %14) #8
  %45 = load i32, ptr %13, align 4, !tbaa !30
  %46 = load ptr, ptr %6, align 8, !tbaa !4
  %47 = getelementptr inbounds nuw %struct.AVCodecContext, ptr %46, i32 0, i32 18
  %48 = load i32, ptr %47, align 8, !tbaa !9
  %49 = sub nsw i32 %45, %48
  %50 = mul nsw i32 %49, 4
  store i32 %50, ptr %14, align 4, !tbaa !30
  call void @llvm.lifetime.start.p0(i64 8, ptr %15) #8
  call void @llvm.lifetime.start.p0(i64 8, ptr %16) #8
  call void @llvm.lifetime.start.p0(i64 8, ptr %17) #8
  call void @llvm.lifetime.start.p0(i64 8, ptr %18) #8
  %51 = load ptr, ptr %6, align 8, !tbaa !4
  %52 = load ptr, ptr %7, align 8, !tbaa !33
  %53 = load i32, ptr %13, align 4, !tbaa !30
  %54 = mul nsw i32 4, %53
  %55 = load ptr, ptr %6, align 8, !tbaa !4
  %56 = getelementptr inbounds nuw %struct.AVCodecContext, ptr %55, i32 0, i32 19
  %57 = load i32, ptr %56, align 4, !tbaa !38
  %58 = mul nsw i32 %54, %57
  %59 = sext i32 %58 to i64
  %60 = call i32 @ff_get_encode_buffer(ptr noundef %51, ptr noundef %52, i64 noundef %59, i32 noundef 0)
  store i32 %60, ptr %12, align 4, !tbaa !30
  %61 = load i32, ptr %12, align 4, !tbaa !30
  %62 = icmp slt i32 %61, 0
  br i1 %62, label %63, label %65

63:                                               ; preds = %4
  %64 = load i32, ptr %12, align 4, !tbaa !30
  store i32 %64, ptr %5, align 4
  store i32 1, ptr %19, align 4
  br label %178

65:                                               ; preds = %4
  %66 = load ptr, ptr %8, align 8, !tbaa !35
  %67 = getelementptr inbounds nuw %struct.AVFrame, ptr %66, i32 0, i32 0
  %68 = getelementptr inbounds [8 x ptr], ptr %67, i64 0, i64 0
  %69 = load ptr, ptr %68, align 8, !tbaa !39
  store ptr %69, ptr %16, align 8, !tbaa !39
  %70 = load ptr, ptr %8, align 8, !tbaa !35
  %71 = getelementptr inbounds nuw %struct.AVFrame, ptr %70, i32 0, i32 0
  %72 = getelementptr inbounds [8 x ptr], ptr %71, i64 0, i64 1
  %73 = load ptr, ptr %72, align 8, !tbaa !39
  store ptr %73, ptr %17, align 8, !tbaa !39
  %74 = load ptr, ptr %8, align 8, !tbaa !35
  %75 = getelementptr inbounds nuw %struct.AVFrame, ptr %74, i32 0, i32 0
  %76 = getelementptr inbounds [8 x ptr], ptr %75, i64 0, i64 2
  %77 = load ptr, ptr %76, align 8, !tbaa !39
  store ptr %77, ptr %15, align 8, !tbaa !39
  %78 = load ptr, ptr %7, align 8, !tbaa !33
  %79 = getelementptr inbounds nuw %struct.AVPacket, ptr %78, i32 0, i32 3
  %80 = load ptr, ptr %79, align 8, !tbaa !40
  store ptr %80, ptr %18, align 8, !tbaa !39
  store i32 0, ptr %10, align 4, !tbaa !30
  br label %81

81:                                               ; preds = %173, %65
  %82 = load i32, ptr %10, align 4, !tbaa !30
  %83 = load ptr, ptr %6, align 8, !tbaa !4
  %84 = getelementptr inbounds nuw %struct.AVCodecContext, ptr %83, i32 0, i32 19
  %85 = load i32, ptr %84, align 4, !tbaa !38
  %86 = icmp slt i32 %82, %85
  br i1 %86, label %87, label %176

87:                                               ; preds = %81
  call void @llvm.lifetime.start.p0(i64 8, ptr %20) #8
  %88 = load ptr, ptr %15, align 8, !tbaa !39
  store ptr %88, ptr %20, align 8, !tbaa !42
  call void @llvm.lifetime.start.p0(i64 8, ptr %21) #8
  %89 = load ptr, ptr %16, align 8, !tbaa !39
  store ptr %89, ptr %21, align 8, !tbaa !42
  call void @llvm.lifetime.start.p0(i64 8, ptr %22) #8
  %90 = load ptr, ptr %17, align 8, !tbaa !39
  store ptr %90, ptr %22, align 8, !tbaa !42
  store i32 0, ptr %11, align 4, !tbaa !30
  br label %91

91:                                               ; preds = %141, %87
  %92 = load i32, ptr %11, align 4, !tbaa !30
  %93 = load ptr, ptr %6, align 8, !tbaa !4
  %94 = getelementptr inbounds nuw %struct.AVCodecContext, ptr %93, i32 0, i32 18
  %95 = load i32, ptr %94, align 8, !tbaa !9
  %96 = icmp slt i32 %92, %95
  br i1 %96, label %97, label %144

97:                                               ; preds = %91
  call void @llvm.lifetime.start.p0(i64 4, ptr %23) #8
  call void @llvm.lifetime.start.p0(i64 4, ptr %24) #8
  %98 = load ptr, ptr %20, align 8, !tbaa !42
  %99 = getelementptr inbounds nuw i16, ptr %98, i32 1
  store ptr %99, ptr %20, align 8, !tbaa !42
  %100 = load i16, ptr %98, align 2, !tbaa !43
  %101 = zext i16 %100 to i32
  store i32 %101, ptr %24, align 4, !tbaa !30
  call void @llvm.lifetime.start.p0(i64 4, ptr %25) #8
  %102 = load ptr, ptr %21, align 8, !tbaa !42
  %103 = getelementptr inbounds nuw i16, ptr %102, i32 1
  store ptr %103, ptr %21, align 8, !tbaa !42
  %104 = load i16, ptr %102, align 2, !tbaa !43
  %105 = zext i16 %104 to i32
  store i32 %105, ptr %25, align 4, !tbaa !30
  call void @llvm.lifetime.start.p0(i64 4, ptr %26) #8
  %106 = load ptr, ptr %22, align 8, !tbaa !42
  %107 = getelementptr inbounds nuw i16, ptr %106, i32 1
  store ptr %107, ptr %22, align 8, !tbaa !42
  %108 = load i16, ptr %106, align 2, !tbaa !43
  %109 = zext i16 %108 to i32
  store i32 %109, ptr %26, align 4, !tbaa !30
  %110 = load ptr, ptr %6, align 8, !tbaa !4
  %111 = getelementptr inbounds nuw %struct.AVCodecContext, ptr %110, i32 0, i32 4
  %112 = load i32, ptr %111, align 8, !tbaa !29
  %113 = icmp eq i32 %112, 133
  br i1 %113, label %114, label %122

114:                                              ; preds = %97
  %115 = load i32, ptr %24, align 4, !tbaa !30
  %116 = shl i32 %115, 20
  %117 = load i32, ptr %25, align 4, !tbaa !30
  %118 = shl i32 %117, 10
  %119 = or i32 %116, %118
  %120 = load i32, ptr %26, align 4, !tbaa !30
  %121 = or i32 %119, %120
  store i32 %121, ptr %23, align 4, !tbaa !30
  br label %131

122:                                              ; preds = %97
  %123 = load i32, ptr %24, align 4, !tbaa !30
  %124 = shl i32 %123, 22
  %125 = load i32, ptr %25, align 4, !tbaa !30
  %126 = shl i32 %125, 12
  %127 = or i32 %124, %126
  %128 = load i32, ptr %26, align 4, !tbaa !30
  %129 = shl i32 %128, 2
  %130 = or i32 %127, %129
  store i32 %130, ptr %23, align 4, !tbaa !30
  br label %131

131:                                              ; preds = %122, %114
  %132 = load ptr, ptr %6, align 8, !tbaa !4
  %133 = getelementptr inbounds nuw %struct.AVCodecContext, ptr %132, i32 0, i32 4
  %134 = load i32, ptr %133, align 8, !tbaa !29
  %135 = icmp eq i32 %134, 198
  br i1 %135, label %136, label %138

136:                                              ; preds = %131
  %137 = load i32, ptr %23, align 4, !tbaa !30
  call void @bytestream_put_le32(ptr noundef %18, i32 noundef %137)
  br label %140

138:                                              ; preds = %131
  %139 = load i32, ptr %23, align 4, !tbaa !30
  call void @bytestream_put_be32(ptr noundef %18, i32 noundef %139)
  br label %140

140:                                              ; preds = %138, %136
  call void @llvm.lifetime.end.p0(i64 4, ptr %26) #8
  call void @llvm.lifetime.end.p0(i64 4, ptr %25) #8
  call void @llvm.lifetime.end.p0(i64 4, ptr %24) #8
  call void @llvm.lifetime.end.p0(i64 4, ptr %23) #8
  br label %141

141:                                              ; preds = %140
  %142 = load i32, ptr %11, align 4, !tbaa !30
  %143 = add nsw i32 %142, 1
  store i32 %143, ptr %11, align 4, !tbaa !30
  br label %91, !llvm.loop !45

144:                                              ; preds = %91
  %145 = load ptr, ptr %18, align 8, !tbaa !39
  %146 = load i32, ptr %14, align 4, !tbaa !30
  %147 = sext i32 %146 to i64
  call void @llvm.memset.p0.i64(ptr align 1 %145, i8 0, i64 %147, i1 false)
  %148 = load i32, ptr %14, align 4, !tbaa !30
  %149 = load ptr, ptr %18, align 8, !tbaa !39
  %150 = sext i32 %148 to i64
  %151 = getelementptr inbounds i8, ptr %149, i64 %150
  store ptr %151, ptr %18, align 8, !tbaa !39
  %152 = load ptr, ptr %8, align 8, !tbaa !35
  %153 = getelementptr inbounds nuw %struct.AVFrame, ptr %152, i32 0, i32 1
  %154 = getelementptr inbounds [8 x i32], ptr %153, i64 0, i64 2
  %155 = load i32, ptr %154, align 8, !tbaa !30
  %156 = load ptr, ptr %15, align 8, !tbaa !39
  %157 = sext i32 %155 to i64
  %158 = getelementptr inbounds i8, ptr %156, i64 %157
  store ptr %158, ptr %15, align 8, !tbaa !39
  %159 = load ptr, ptr %8, align 8, !tbaa !35
  %160 = getelementptr inbounds nuw %struct.AVFrame, ptr %159, i32 0, i32 1
  %161 = getelementptr inbounds [8 x i32], ptr %160, i64 0, i64 0
  %162 = load i32, ptr %161, align 8, !tbaa !30
  %163 = load ptr, ptr %16, align 8, !tbaa !39
  %164 = sext i32 %162 to i64
  %165 = getelementptr inbounds i8, ptr %163, i64 %164
  store ptr %165, ptr %16, align 8, !tbaa !39
  %166 = load ptr, ptr %8, align 8, !tbaa !35
  %167 = getelementptr inbounds nuw %struct.AVFrame, ptr %166, i32 0, i32 1
  %168 = getelementptr inbounds [8 x i32], ptr %167, i64 0, i64 1
  %169 = load i32, ptr %168, align 4, !tbaa !30
  %170 = load ptr, ptr %17, align 8, !tbaa !39
  %171 = sext i32 %169 to i64
  %172 = getelementptr inbounds i8, ptr %170, i64 %171
  store ptr %172, ptr %17, align 8, !tbaa !39
  call void @llvm.lifetime.end.p0(i64 8, ptr %22) #8
  call void @llvm.lifetime.end.p0(i64 8, ptr %21) #8
  call void @llvm.lifetime.end.p0(i64 8, ptr %20) #8
  br label %173

173:                                              ; preds = %144
  %174 = load i32, ptr %10, align 4, !tbaa !30
  %175 = add nsw i32 %174, 1
  store i32 %175, ptr %10, align 4, !tbaa !30
  br label %81, !llvm.loop !47

176:                                              ; preds = %81
  %177 = load ptr, ptr %9, align 8, !tbaa !37
  store i32 1, ptr %177, align 4, !tbaa !30
  store i32 0, ptr %5, align 4
  store i32 1, ptr %19, align 4
  br label %178

178:                                              ; preds = %176, %63
  call void @llvm.lifetime.end.p0(i64 8, ptr %18) #8
  call void @llvm.lifetime.end.p0(i64 8, ptr %17) #8
  call void @llvm.lifetime.end.p0(i64 8, ptr %16) #8
  call void @llvm.lifetime.end.p0(i64 8, ptr %15) #8
  call void @llvm.lifetime.end.p0(i64 4, ptr %14) #8
  call void @llvm.lifetime.end.p0(i64 4, ptr %13) #8
  call void @llvm.lifetime.end.p0(i64 4, ptr %12) #8
  call void @llvm.lifetime.end.p0(i64 4, ptr %11) #8
  call void @llvm.lifetime.end.p0(i64 4, ptr %10) #8
  %179 = load i32, ptr %5, align 4
  ret i32 %179
}