; Function Attrs: nounwind uwtable
define internal range(i32 -2147483648, 1) i32 @encode_frame(ptr noundef %0, ptr noundef %1, ptr noundef readonly captures(none) %2, ptr noundef writeonly captures(none) %3) #1 {
  %5 = getelementptr inbounds nuw i8, ptr %0, i64 112
  %6 = load i32, ptr %5, align 8, !tbaa !4
  %7 = getelementptr inbounds nuw i8, ptr %0, i64 24
  %8 = load i32, ptr %7, align 8, !tbaa !27
  %9 = icmp eq i32 %8, 144
  %.neg = select i1 %9, i32 -1, i32 -64
  %10 = select i1 %9, i32 1, i32 64
  %11 = add i32 %6, -1
  %12 = add i32 %11, %10
  %13 = and i32 %12, %.neg
  %14 = sub nsw i32 %13, %6
  %15 = shl nsw i32 %14, 2
  %16 = getelementptr inbounds nuw i8, ptr %0, i64 116
  %17 = load i32, ptr %16, align 4, !tbaa !30
  %18 = shl i32 %17, 2
  %19 = mul i32 %18, %13
  %20 = sext i32 %19 to i64
  %21 = tail call i32 @ff_get_encode_buffer(ptr noundef %0, ptr noundef %1, i64 noundef %20, i32 noundef 0) #6
  %22 = icmp slt i32 %21, 0
  br i1 %22, label %80, label %23

23:                                               ; preds = %4
  %24 = load i32, ptr %16, align 4, !tbaa !30
  %25 = icmp sgt i32 %24, 0
  br i1 %25, label %.preheader.lr.ph, label %._crit_edge74

.preheader.lr.ph:                                 ; preds = %23
  %26 = getelementptr inbounds nuw i8, ptr %1, i64 24
  %27 = load ptr, ptr %26, align 8, !tbaa !31
  %28 = getelementptr inbounds nuw i8, ptr %2, i64 16
  %29 = load ptr, ptr %28, align 8, !tbaa !33
  %30 = getelementptr inbounds nuw i8, ptr %2, i64 8
  %31 = load ptr, ptr %30, align 8, !tbaa !33
  %32 = load ptr, ptr %2, align 8, !tbaa !33
  %33 = sext i32 %15 to i64
  %34 = getelementptr inbounds nuw i8, ptr %2, i64 64
  %35 = getelementptr inbounds nuw i8, ptr %2, i64 72
  %36 = getelementptr inbounds nuw i8, ptr %2, i64 68
  br label %.preheader

.preheader:                                       ; preds = %.preheader.lr.ph, %._crit_edge
  %.04673 = phi i32 [ 0, %.preheader.lr.ph ], [ %77, %._crit_edge ]
  %.05272 = phi ptr [ %31, %.preheader.lr.ph ], [ %76, %._crit_edge ]
  %.05371 = phi ptr [ %32, %.preheader.lr.ph ], [ %73, %._crit_edge ]
  %.05470 = phi ptr [ %29, %.preheader.lr.ph ], [ %70, %._crit_edge ]
  %.06169 = phi ptr [ %27, %.preheader.lr.ph ], [ %67, %._crit_edge ]
  %37 = load i32, ptr %5, align 8, !tbaa !4
  %38 = icmp sgt i32 %37, 0
  br i1 %38, label %.lr.ph, label %._crit_edge

.lr.ph:                                           ; preds = %.preheader, %63
  %.04768 = phi i32 [ %64, %63 ], [ 0, %.preheader ]
  %.04967 = phi ptr [ %45, %63 ], [ %.05272, %.preheader ]
  %.05066 = phi ptr [ %42, %63 ], [ %.05371, %.preheader ]
  %.05165 = phi ptr [ %39, %63 ], [ %.05470, %.preheader ]
  %.164 = phi ptr [ %.2, %63 ], [ %.06169, %.preheader ]
  %39 = getelementptr inbounds nuw i8, ptr %.05165, i64 2
  %40 = load i16, ptr %.05165, align 2, !tbaa !34
  %41 = zext i16 %40 to i32
  %42 = getelementptr inbounds nuw i8, ptr %.05066, i64 2
  %43 = load i16, ptr %.05066, align 2, !tbaa !34
  %44 = zext i16 %43 to i32
  %45 = getelementptr inbounds nuw i8, ptr %.04967, i64 2
  %46 = load i16, ptr %.04967, align 2, !tbaa !34
  %47 = zext i16 %46 to i32
  %48 = load i32, ptr %7, align 8, !tbaa !27
  %49 = icmp eq i32 %48, 133
  br i1 %49, label %.thread, label %54

.thread:                                          ; preds = %.lr.ph
  %50 = shl i32 %41, 20
  %51 = shl nuw nsw i32 %44, 10
  %52 = or i32 %51, %50
  %53 = or i32 %52, %47
  br label %61

54:                                               ; preds = %.lr.ph
  %55 = shl i32 %41, 22
  %56 = shl nuw nsw i32 %44, 12
  %57 = or i32 %56, %55
  %58 = shl nuw nsw i32 %47, 2
  %59 = or i32 %57, %58
  %60 = icmp eq i32 %48, 198
  br i1 %60, label %63, label %61

61:                                               ; preds = %.thread, %54
  %.04863 = phi i32 [ %53, %.thread ], [ %59, %54 ]
  %62 = tail call i32 @llvm.bswap.i32(i32 %.04863)
  br label %63

63:                                               ; preds = %54, %61
  %storemerge = phi i32 [ %62, %61 ], [ %59, %54 ]
  store i32 %storemerge, ptr %.164, align 1, !tbaa !36
  %.2 = getelementptr inbounds nuw i8, ptr %.164, i64 4
  %64 = add nuw nsw i32 %.04768, 1
  %65 = load i32, ptr %5, align 8, !tbaa !4
  %66 = icmp slt i32 %64, %65
  br i1 %66, label %.lr.ph, label %._crit_edge, !llvm.loop !37

._crit_edge:                                      ; preds = %63, %.preheader
  %.1.lcssa = phi ptr [ %.06169, %.preheader ], [ %.2, %63 ]
  tail call void @llvm.memset.p0.i64(ptr align 1 %.1.lcssa, i8 0, i64 %33, i1 false)
  %67 = getelementptr inbounds i8, ptr %.1.lcssa, i64 %33
  %68 = load i32, ptr %35, align 8, !tbaa !39
  %69 = sext i32 %68 to i64
  %70 = getelementptr inbounds i8, ptr %.05470, i64 %69
  %71 = load i32, ptr %34, align 8, !tbaa !39
  %72 = sext i32 %71 to i64
  %73 = getelementptr inbounds i8, ptr %.05371, i64 %72
  %74 = load i32, ptr %36, align 4, !tbaa !39
  %75 = sext i32 %74 to i64
  %76 = getelementptr inbounds i8, ptr %.05272, i64 %75
  %77 = add nuw nsw i32 %.04673, 1
  %78 = load i32, ptr %16, align 4, !tbaa !30
  %79 = icmp slt i32 %77, %78
  br i1 %79, label %.preheader, label %._crit_edge74, !llvm.loop !40

._crit_edge74:                                    ; preds = %._crit_edge, %23
  store i32 1, ptr %3, align 4, !tbaa !39
  br label %80

80:                                               ; preds = %4, %._crit_edge74
  %.0 = phi i32 [ 0, %._crit_edge74 ], [ %21, %4 ]
  ret i32 %.0
}